target datalayout = "e-m:e-p270:32:32-p271:32:32-p272:64:64-i64:64-i128:128-f80:128-n8:16:32:64-S128"
target triple = "x86_64-pc-linux-gnu"

%"class.g2o::OptimizableGraph::Vertex" = type { %"class.g2o::HyperGraph::Vertex", %"class.g2o::HyperGraph::DataContainer", ptr, ptr, i32, i8, i8, i32, i32, [8 x i8], ptr }
%"class.g2o::HyperGraph::Vertex" = type { %"struct.g2o::HyperGraph::HyperGraphElement", i32, %"class.std::set" }
%"struct.g2o::HyperGraph::HyperGraphElement" = type { ptr }
%"class.std::set" = type { %"class.std::_Rb_tree" }
%"class.std::_Rb_tree" = type { %"struct.std::_Rb_tree<g2o::HyperGraph::Edge *, g2o::HyperGraph::Edge *, std::_Identity<g2o::HyperGraph::Edge *>, std::less<g2o::HyperGraph::Edge *>>::_Rb_tree_impl" }
%"struct.std::_Rb_tree<g2o::HyperGraph::Edge *, g2o::HyperGraph::Edge *, std::_Identity<g2o::HyperGraph::Edge *>, std::less<g2o::HyperGraph::Edge *>>::_Rb_tree_impl" = type { [8 x i8], %"struct.std::_Rb_tree_header" }
%"struct.std::_Rb_tree_header" = type { %"struct.std::_Rb_tree_node_base", i64 }
%"struct.std::_Rb_tree_node_base" = type { i32, ptr, ptr, ptr }
%"class.g2o::HyperGraph::DataContainer" = type { ptr, ptr }

@_ZTIN3g2o10HyperGraph6VertexE = external constant ptr

; Function Attrs: mustprogress nounwind uwtable
define linkonce_odr void @_ZN3g2o10HyperGraph13DataContainer11setUserDataEPNS0_4DataE(ptr noundef nonnull align 8 dereferenceable(16) %0, ptr noundef %1) #4 comdat align 2 {
  %3 = alloca ptr, align 8
  %4 = alloca ptr, align 8
  store ptr %0, ptr %3, align 8, !tbaa !45
  store ptr %1, ptr %4, align 8, !tbaa !158
  %5 = load ptr, ptr %3, align 8
  %6 = load ptr, ptr %4, align 8, !tbaa !158
  %7 = getelementptr inbounds nuw %"class.g2o::HyperGraph::DataContainer", ptr %5, i32 0, i32 1
  store ptr %6, ptr %7, align 8, !tbaa !47
  ret void
}

; Function Attrs: inlinehint mustprogress uwtable
define linkonce_odr noundef ptr @_ZN3g2o16OptimizableGraph6vertexEi(ptr noundef nonnull align 8 dereferenceable(288) %0, i32 noundef %1) #12 comdat align 2 {
  %3 = alloca ptr, align 8
  %4 = alloca i32, align 4
  store ptr %0, ptr %3, align 8, !tbaa !111
  store i32 %1, ptr %4, align 4, !tbaa !104
  %5 = load ptr, ptr %3, align 8
  %6 = load i32, ptr %4, align 4, !tbaa !104
  %7 = call noundef ptr @_ZN3g2o10HyperGraph6vertexEi(ptr noundef nonnull align 8 dereferenceable(112) %5, i32 noundef %6)
  ret ptr %7
}

; Function Attrs: mustprogress nounwind uwtable
define linkonce_odr noundef i32 @_ZNK3g2o10HyperGraph6Vertex2idEv(ptr noundef nonnull align 8 dereferenceable(64) %0) #4 comdat align 2 {
  %2 = alloca ptr, align 8
  store ptr %0, ptr %2, align 8, !tbaa !97
  %3 = load ptr, ptr %2, align 8
  %4 = getelementptr inbounds nuw %"class.g2o::HyperGraph::Vertex", ptr %3, i32 0, i32 1
  %5 = load i32, ptr %4, align 8, !tbaa !159
  ret i32 %5
}

; Function Attrs: mustprogress uwtable
define noundef zeroext i1 @_ZN3g2o16OptimizableGraph9addVertexEPNS0_6VertexEPNS_10HyperGraph4DataE(ptr noundef nonnull align 8 dereferenceable(288) %0, ptr noundef %1, ptr noundef %2) #6 align 2 {
  %4 = alloca i1, align 1
  %5 = alloca ptr, align 8
  %6 = alloca ptr, align 8
  %7 = alloca ptr, align 8
  %8 = alloca ptr, align 8
  %9 = alloca i32, align 4
  store ptr %0, ptr %5, align 8, !tbaa !111
  store ptr %1, ptr %6, align 8, !tbaa !14
  store ptr %2, ptr %7, align 8, !tbaa !158
  %10 = load ptr, ptr %5, align 8
  %11 = load ptr, ptr %6, align 8, !tbaa !14
  %12 = call noundef i32 @_ZNK3g2o10HyperGraph6Vertex2idEv(ptr noundef nonnull align 8 dereferenceable(64) %11)
  %13 = icmp slt i32 %12, 0
  br i1 %13, label %14, label %15

14:                                               ; preds = %3
  store i1 false, ptr %4, align 1
  br label %46

15:                                               ; preds = %3
  call void @llvm.lifetime.start.p0(i64 8, ptr %8) #3
  %16 = load ptr, ptr %6, align 8, !tbaa !14
  %17 = call noundef i32 @_ZNK3g2o10HyperGraph6Vertex2idEv(ptr noundef nonnull align 8 dereferenceable(64) %16)
  %18 = call noundef ptr @_ZN3g2o16OptimizableGraph6vertexEi(ptr noundef nonnull align 8 dereferenceable(288) %10, i32 noundef %17)
  store ptr %18, ptr %8, align 8, !tbaa !14
  %19 = load ptr, ptr %8, align 8, !tbaa !14
  %20 = icmp ne ptr %19, null
  br i1 %20, label %21, label %22

21:                                               ; preds = %15
  store i1 false, ptr %4, align 1
  store i32 1, ptr %9, align 4
  br label %45

22:                                               ; preds = %15
  %23 = load ptr, ptr %6, align 8, !tbaa !14
  %24 = getelementptr inbounds nuw %"class.g2o::OptimizableGraph::Vertex", ptr %23, i32 0, i32 2
  %25 = load ptr, ptr %24, align 8, !tbaa !18
  %26 = icmp ne ptr %25, null
  br i1 %26, label %27, label %33

27:                                               ; preds = %22
  %28 = load ptr, ptr %6, align 8, !tbaa !14
  %29 = getelementptr inbounds nuw %"class.g2o::OptimizableGraph::Vertex", ptr %28, i32 0, i32 2
  %30 = load ptr, ptr %29, align 8, !tbaa !18
  %31 = icmp ne ptr %30, %10
  br i1 %31, label %32, label %33

32:                                               ; preds = %27
  store i1 false, ptr %4, align 1
  store i32 1, ptr %9, align 4
  br label %45

33:                                               ; preds = %27, %22
  %34 = load ptr, ptr %7, align 8, !tbaa !158
  %35 = icmp ne ptr %34, null
  br i1 %35, label %36, label %40

36:                                               ; preds = %33
  %37 = load ptr, ptr %6, align 8, !tbaa !14
  %38 = getelementptr inbounds i8, ptr %37, i64 64
  %39 = load ptr, ptr %7, align 8, !tbaa !158
  call void @_ZN3g2o10HyperGraph13DataContainer11setUserDataEPNS0_4DataE(ptr noundef nonnull align 8 dereferenceable(16) %38, ptr noundef %39)
  br label %40

40:                                               ; preds = %36, %33
  %41 = load ptr, ptr %6, align 8, !tbaa !14
  %42 = getelementptr inbounds nuw %"class.g2o::OptimizableGraph::Vertex", ptr %41, i32 0, i32 2
  store ptr %10, ptr %42, align 8, !tbaa !18
  %43 = load ptr, ptr %6, align 8, !tbaa !14
  %44 = call noundef zeroext i1 @_ZN3g2o10HyperGraph9addVertexEPNS0_6VertexE(ptr noundef nonnull align 8 dereferenceable(112) %10, ptr noundef %43)
  store i1 %44, ptr %4, align 1
  store i32 1, ptr %9, align 4
  br label %45

45:                                               ; preds = %40, %32, %21
  call void @llvm.lifetime.end.p0(i64 8, ptr %8) #3
  br label %46

46:                                               ; preds = %45, %14
  %47 = load i1, ptr %4, align 1
  ret i1 %47
}

; Function Attrs: mustprogress uwtable
define noundef zeroext i1 @_ZN3g2o16OptimizableGraph9addVertexEPNS_10HyperGraph6VertexEPNS1_4DataE(ptr noundef nonnull align 8 dereferenceable(288) %0, ptr noundef %1, ptr noundef %2) unnamed_addr #6 align 2 {
  %4 = alloca i1, align 1
  %5 = alloca ptr, align 8
  %6 = alloca ptr, align 8
  %7 = alloca ptr, align 8
  %8 = alloca ptr, align 8
  %9 = alloca i32, align 4
  store ptr %0, ptr %5, align 8, !tbaa !111
  store ptr %1, ptr %6, align 8, !tbaa !97
  store ptr %2, ptr %7, align 8, !tbaa !158
  %10 = load ptr, ptr %5, align 8
  call void @llvm.lifetime.start.p0(i64 8, ptr %8) #3
  %11 = load ptr, ptr %6, align 8, !tbaa !97
  %12 = icmp eq ptr %11, null
  br i1 %12, label %15, label %13

13:                                               ; preds = %3
  %14 = call ptr @__dynamic_cast(ptr %11, ptr @_ZTIN3g2o10HyperGraph6VertexE, ptr @_ZTIN3g2o16OptimizableGraph6VertexE, i64 0) #3
  br label %16

15:                                               ; preds = %3
  br label %16

16:                                               ; preds = %15, %13
  %17 = phi ptr [ %14, %13 ], [ null, %15 ]
  store ptr %17, ptr %8, align 8, !tbaa !14
  %18 = load ptr, ptr %8, align 8, !tbaa !14
  %19 = icmp ne ptr %18, null
  br i1 %19, label %21, label %20

20:                                               ; preds = %16
  store i1 false, ptr %4, align 1
  store i32 1, ptr %9, align 4
  br label %25

21:                                               ; preds = %16
  %22 = load ptr, ptr %8, align 8, !tbaa !14
  %23 = load ptr, ptr %7, align 8, !tbaa !158
  %24 = call noundef zeroext i1 @_ZN3g2o16OptimizableGraph9addVertexEPNS0_6VertexEPNS_10HyperGraph4DataE(ptr noundef nonnull align 8 dereferenceable(288) %10, ptr noundef %22, ptr noundef %23)
  store i1 %24, ptr %4, align 1
  store i32 1, ptr %9, align 4
  br label %25

25:                                               ; preds = %21, %20
  call void @llvm.lifetime.end.p0(i64 8, ptr %8) #3
  %26 = load i1, ptr %4, align 1
  ret i1 %26
}