; Function Attrs: mustprogress uwtable
define noundef zeroext i1 @_ZN3g2o16OptimizableGraph9addVertexEPNS_10HyperGraph6VertexEPNS1_4DataE(ptr noundef nonnull align 8 dereferenceable(288) %0, ptr noundef %1, ptr noundef %2) unnamed_addr #4 align 2 {
  %4 = icmp eq ptr %1, null
  br i1 %4, label %_ZN3g2o16OptimizableGraph9addVertexEPNS0_6VertexEPNS_10HyperGraph4DataE.exit, label %5

5:                                                ; preds = %3
  %6 = tail call ptr @__dynamic_cast(ptr nonnull %1, ptr nonnull @_ZTIN3g2o10HyperGraph6VertexE, ptr nonnull @_ZTIN3g2o16OptimizableGraph6VertexE, i64 0) #45
  %.not = icmp eq ptr %6, null
  br i1 %.not, label %_ZN3g2o16OptimizableGraph9addVertexEPNS0_6VertexEPNS_10HyperGraph4DataE.exit, label %7

7:                                                ; preds = %5
  %8 = getelementptr inbounds nuw i8, ptr %6, i64 8
  %9 = load i32, ptr %8, align 8, !tbaa !133
  %10 = icmp slt i32 %9, 0
  br i1 %10, label %_ZN3g2o16OptimizableGraph9addVertexEPNS0_6VertexEPNS_10HyperGraph4DataE.exit, label %11

11:                                               ; preds = %7
  %12 = tail call noundef ptr @_ZN3g2o10HyperGraph6vertexEi(ptr noundef nonnull align 8 dereferenceable(288) %0, i32 noundef %9)
  %.not.i = icmp eq ptr %12, null
  br i1 %.not.i, label %13, label %_ZN3g2o16OptimizableGraph9addVertexEPNS0_6VertexEPNS_10HyperGraph4DataE.exit

13:                                               ; preds = %11
  %14 = getelementptr inbounds nuw i8, ptr %6, i64 80
  %15 = load ptr, ptr %14, align 8, !tbaa !81
  %.not14.i = icmp eq ptr %15, null
  %.not15.i = icmp eq ptr %15, %0
  %or.cond.i = or i1 %.not14.i, %.not15.i
  br i1 %or.cond.i, label %16, label %_ZN3g2o16OptimizableGraph9addVertexEPNS0_6VertexEPNS_10HyperGraph4DataE.exit

16:                                               ; preds = %13
  %.not16.i = icmp eq ptr %2, null
  br i1 %.not16.i, label %19, label %17

17:                                               ; preds = %16
  %18 = getelementptr inbounds nuw i8, ptr %6, i64 72
  store ptr %2, ptr %18, align 8, !tbaa !3
  br label %19

19:                                               ; preds = %17, %16
  store ptr %0, ptr %14, align 8, !tbaa !81
  %20 = tail call noundef zeroext i1 @_ZN3g2o10HyperGraph9addVertexEPNS0_6VertexE(ptr noundef nonnull align 8 dereferenceable(288) %0, ptr noundef nonnull %6)
  br label %_ZN3g2o16OptimizableGraph9addVertexEPNS0_6VertexEPNS_10HyperGraph4DataE.exit

_ZN3g2o16OptimizableGraph9addVertexEPNS0_6VertexEPNS_10HyperGraph4DataE.exit: ; preds = %3, %19, %13, %11, %7, %5
  %.0 = phi i1 [ false, %5 ], [ false, %7 ], [ %20, %19 ], [ false, %11 ], [ false, %13 ], [ false, %3 ]
  ret i1 %.0
}